; ModuleID = '29/1949.c'
source_filename = "29/1949.c"
target datalayout = "e-m:e-p270:32:32-p271:32:32-p272:64:64-i64:64-f80:128-n8:16:32:64-S128"
target triple = "x86_64-pc-linux-gnu"

@.str = private unnamed_addr constant [3 x i8] c"%d\00", align 1
@.str.1 = private unnamed_addr constant [6 x i8] c"%.3f\0A\00", align 1

; Function Attrs: noinline nounwind uwtable
define dso_local double @calculate(i32 %0) #0 {
  %2 = alloca i32, align 4
  %3 = alloca double, align 8
  %4 = alloca i32, align 4
  %5 = alloca i32, align 4
  %6 = alloca i32, align 4
  %7 = alloca i32, align 4
  store i32 %0, i32* %2, align 4
  store i32 1, i32* %4, align 4
  store i32 2, i32* %5, align 4
  %8 = load i32, i32* %5, align 4
  %9 = sitofp i32 %8 to double
  %10 = fmul double %9, 1.000000e+00
  %11 = load i32, i32* %4, align 4
  %12 = sitofp i32 %11 to double
  %13 = fdiv double %10, %12
  %14 = load double, double* %3, align 8
  %15 = fadd double %14, %13
  store double %15, double* %3, align 8
  store i32 1, i32* %7, align 4
  br label %16

16:                                               ; preds = %35, %1
  %17 = load i32, i32* %7, align 4
  %18 = load i32, i32* %2, align 4
  %19 = sub nsw i32 %18, 1
  %20 = icmp sle i32 %17, %19
  br i1 %20, label %21, label %38

21:                                               ; preds = %16
  %22 = load i32, i32* %4, align 4
  %23 = load i32, i32* %5, align 4
  %24 = add nsw i32 %22, %23
  store i32 %24, i32* %6, align 4
  %25 = load i32, i32* %5, align 4
  store i32 %25, i32* %4, align 4
  %26 = load i32, i32* %6, align 4
  store i32 %26, i32* %5, align 4
  %27 = load i32, i32* %5, align 4
  %28 = sitofp i32 %27 to double
  %29 = fmul double %28, 1.000000e+00
  %30 = load i32, i32* %4, align 4
  %31 = sitofp i32 %30 to double
  %32 = fdiv double %29, %31
  %33 = load double, double* %3, align 8
  %34 = fadd double %33, %32
  store double %34, double* %3, align 8
  br label %35

35:                                               ; preds = %21
  %36 = load i32, i32* %7, align 4
  %37 = add nsw i32 %36, 1
  store i32 %37, i32* %7, align 4
  br label %16

38:                                               ; preds = %16
  %39 = load double, double* %3, align 8
  ret double %39
}

; Function Attrs: noinline nounwind uwtable
define dso_local void @main() #0 {
  %1 = alloca i32, align 4
  %2 = alloca i32, align 4
  %3 = alloca i32, align 4
  %4 = alloca double, align 8
  %5 = call i32 (i8*, ...) @__isoc99_scanf(i8* getelementptr inbounds ([3 x i8], [3 x i8]* @.str, i64 0, i64 0), i32* %1)
  store i32 1, i32* %2, align 4
  br label %6

6:                                                ; preds = %16, %0
  %7 = load i32, i32* %2, align 4
  %8 = load i32, i32* %1, align 4
  %9 = icmp sle i32 %7, %8
  br i1 %9, label %10, label %19

10:                                               ; preds = %6
  %11 = call i32 (i8*, ...) @__isoc99_scanf(i8* getelementptr inbounds ([3 x i8], [3 x i8]* @.str, i64 0, i64 0), i32* %3)
  %12 = load i32, i32* %3, align 4
  %13 = call double @calculate(i32 %12)
  store double %13, double* %4, align 8
  %14 = load double, double* %4, align 8
  %15 = call i32 (i8*, ...) @printf(i8* getelementptr inbounds ([6 x i8], [6 x i8]* @.str.1, i64 0, i64 0), double %14)
  br label %16

16:                                               ; preds = %10
  %17 = load i32, i32* %2, align 4
  %18 = add nsw i32 %17, 1
  store i32 %18, i32* %2, align 4
  br label %6

19:                                               ; preds = %6
  ret void
}

declare dso_local i32 @__isoc99_scanf(i8*, ...) #1

declare dso_local i32 @printf(i8*, ...) #1


!llvm.module.flags = !{!0}
!llvm.ident = !{!1}

!0 = !{i32 1, !"wchar_size", i32 4}
!1 = !{!"clang version 10.0.0-4ubuntu1 "}
